; ModuleID = 'source-C-CXX/57/972.c'
source_filename = "source-C-CXX/57/972.c"
target datalayout = "e-m:e-p270:32:32-p271:32:32-p272:64:64-i64:64-f80:128-n8:16:32:64-S128"
target triple = "x86_64-pc-linux-gnu"

%struct._IO_FILE = type { i32, i8*, i8*, i8*, i8*, i8*, i8*, i8*, i8*, i8*, i8*, i8*, %struct._IO_marker*, %struct._IO_FILE*, i32, i32, i64, i16, i8, [1 x i8], i8*, i64, %struct._IO_codecvt*, %struct._IO_wide_data*, %struct._IO_FILE*, i8*, i64, i32, [20 x i8] }
%struct._IO_marker = type opaque
%struct._IO_codecvt = type opaque
%struct._IO_wide_data = type opaque

@.str = private unnamed_addr constant [3 x i8] c"%d\00", align 1
@.str.1 = private unnamed_addr constant [4 x i8] c"%d\0A\00", align 1
@stdin = external local_unnamed_addr global %struct._IO_FILE*, align 8

; Function Attrs: nounwind sspstrong uwtable
define dso_local i32 @main() local_unnamed_addr #0 {
  %1 = alloca [100 x i8], align 16
  %2 = alloca [100 x i8], align 16
  %3 = alloca i32, align 4
  %4 = getelementptr inbounds [100 x i8], [100 x i8]* %1, i64 0, i64 0
  call void @llvm.lifetime.start.p0i8(i64 100, i8* nonnull %4) #6
  %5 = getelementptr inbounds [100 x i8], [100 x i8]* %2, i64 0, i64 0
  call void @llvm.lifetime.start.p0i8(i64 100, i8* nonnull %5) #6
  call void @llvm.memset.p0i8.i64(i8* noundef nonnull align 16 dereferenceable(100) %5, i8 0, i64 100, i1 false)
  %6 = bitcast i32* %3 to i8*
  call void @llvm.lifetime.start.p0i8(i64 4, i8* nonnull %6) #6
  %7 = call i32 (i8*, ...) @__isoc99_scanf(i8* getelementptr inbounds ([3 x i8], [3 x i8]* @.str, i64 0, i64 0), i32* nonnull %3)
  %8 = load %struct._IO_FILE*, %struct._IO_FILE** @stdin, align 8, !tbaa !5
  %9 = call i32 @getc(%struct._IO_FILE* %8) #6
  %10 = load i32, i32* %3, align 4, !tbaa !9
  %11 = icmp sgt i32 %10, 0
  br i1 %11, label %14, label %61

12:                                               ; preds = %46
  %13 = icmp sgt i32 %48, 0
  br i1 %13, label %51, label %61

14:                                               ; preds = %0, %46
  %15 = phi i64 [ %47, %46 ], [ 0, %0 ]
  %16 = call i32 (i8*, ...) bitcast (i32 (...)* @gets to i32 (i8*, ...)*)(i8* nonnull %4) #6
  %17 = load i8, i8* %4, align 16, !tbaa !11
  %18 = icmp eq i8 %17, 95
  %19 = and i8 %17, -33
  %20 = add i8 %19, -65
  %21 = icmp ult i8 %20, 26
  %22 = or i1 %21, %18
  br i1 %22, label %23, label %46

23:                                               ; preds = %14
  %24 = call i64 @strlen(i8* noundef nonnull %4) #7
  %25 = trunc i64 %24 to i32
  %26 = icmp sgt i32 %25, 1
  br i1 %26, label %27, label %44

27:                                               ; preds = %23
  %28 = and i64 %24, 4294967295
  br label %31

29:                                               ; preds = %31
  %30 = icmp eq i64 %43, %28
  br i1 %30, label %44, label %31, !llvm.loop !12

31:                                               ; preds = %27, %29
  %32 = phi i64 [ 1, %27 ], [ %43, %29 ]
  %33 = getelementptr inbounds [100 x i8], [100 x i8]* %1, i64 0, i64 %32
  %34 = load i8, i8* %33, align 1, !tbaa !11
  %35 = icmp eq i8 %34, 95
  %36 = and i8 %34, -33
  %37 = add i8 %36, -65
  %38 = icmp ult i8 %37, 26
  %39 = or i1 %38, %35
  %40 = add i8 %34, -48
  %41 = icmp ult i8 %40, 10
  %42 = or i1 %39, %41
  %43 = add nuw nsw i64 %32, 1
  br i1 %42, label %29, label %46

44:                                               ; preds = %29, %23
  %45 = getelementptr inbounds [100 x i8], [100 x i8]* %2, i64 0, i64 %15
  store i8 1, i8* %45, align 1, !tbaa !11
  br label %46

46:                                               ; preds = %31, %14, %44
  %47 = add nuw nsw i64 %15, 1
  %48 = load i32, i32* %3, align 4, !tbaa !9
  %49 = sext i32 %48 to i64
  %50 = icmp slt i64 %47, %49
  br i1 %50, label %14, label %12, !llvm.loop !14

51:                                               ; preds = %12, %51
  %52 = phi i64 [ %57, %51 ], [ 0, %12 ]
  %53 = getelementptr inbounds [100 x i8], [100 x i8]* %2, i64 0, i64 %52
  %54 = load i8, i8* %53, align 1, !tbaa !11
  %55 = sext i8 %54 to i32
  %56 = call i32 (i8*, ...) @printf(i8* nonnull dereferenceable(1) getelementptr inbounds ([4 x i8], [4 x i8]* @.str.1, i64 0, i64 0), i32 %55)
  %57 = add nuw nsw i64 %52, 1
  %58 = load i32, i32* %3, align 4, !tbaa !9
  %59 = sext i32 %58 to i64
  %60 = icmp slt i64 %57, %59
  br i1 %60, label %51, label %61, !llvm.loop !15

61:                                               ; preds = %51, %0, %12
  call void @llvm.lifetime.end.p0i8(i64 4, i8* nonnull %6) #6
  call void @llvm.lifetime.end.p0i8(i64 100, i8* nonnull %5) #6
  call void @llvm.lifetime.end.p0i8(i64 100, i8* nonnull %4) #6
  ret i32 0
}

; Function Attrs: argmemonly mustprogress nofree nosync nounwind willreturn
declare void @llvm.lifetime.start.p0i8(i64 immarg, i8* nocapture) #1

; Function Attrs: argmemonly mustprogress nofree nounwind willreturn writeonly
declare void @llvm.memset.p0i8.i64(i8* nocapture writeonly, i8, i64, i1 immarg) #2

; Function Attrs: nofree nounwind
declare noundef i32 @__isoc99_scanf(i8* nocapture noundef readonly, ...) local_unnamed_addr #3

declare i32 @gets(...) local_unnamed_addr #4

; Function Attrs: argmemonly mustprogress nofree nounwind readonly willreturn
declare i64 @strlen(i8* nocapture) local_unnamed_addr #5

; Function Attrs: nofree nounwind
declare noundef i32 @printf(i8* nocapture noundef readonly, ...) local_unnamed_addr #3

; Function Attrs: argmemonly mustprogress nofree nosync nounwind willreturn
declare void @llvm.lifetime.end.p0i8(i64 immarg, i8* nocapture) #1

; Function Attrs: nofree nounwind
declare noundef i32 @getc(%struct._IO_FILE* nocapture noundef) local_unnamed_addr #3


!llvm.module.flags = !{!0, !1, !2, !3}
!llvm.ident = !{!4}

!0 = !{i32 1, !"wchar_size", i32 4}
!1 = !{i32 7, !"PIC Level", i32 2}
!2 = !{i32 7, !"PIE Level", i32 2}
!3 = !{i32 7, !"uwtable", i32 1}
!4 = !{!"clang version 13.0.0"}
!5 = !{!6, !6, i64 0}
!6 = !{!"any pointer", !7, i64 0}
!7 = !{!"omnipotent char", !8, i64 0}
!8 = !{!"Simple C/C++ TBAA"}
!9 = !{!10, !10, i64 0}
!10 = !{!"int", !7, i64 0}
!11 = !{!7, !7, i64 0}
!12 = distinct !{!12, !13}
!13 = !{!"llvm.loop.mustprogress"}
!14 = distinct !{!14, !13}
!15 = distinct !{!15, !13}
